	.arch armv8-a
	.file	"md5.cpp"
	.text
	.section	.text._ZNKSt5ctypeIcE8do_widenEc,"axG",@progbits,_ZNKSt5ctypeIcE8do_widenEc,comdat
	.align	2
	.p2align 4,,11
	.weak	_ZNKSt5ctypeIcE8do_widenEc
	.type	_ZNKSt5ctypeIcE8do_widenEc, %function
_ZNKSt5ctypeIcE8do_widenEc:
.LFB1348:
	.cfi_startproc
	mov	w0, w1
	ret
	.cfi_endproc
.LFE1348:
	.size	_ZNKSt5ctypeIcE8do_widenEc, .-_ZNKSt5ctypeIcE8do_widenEc
	.section	.rodata.str1.8,"aMS",@progbits,1
	.align	3
.LC0:
	.string	"basic_string::_M_construct null not valid"
	.text
	.align	2
	.p2align 4,,11
	.type	_ZNSt7__cxx1112basic_stringIcSt11char_traitsIcESaIcEE12_M_constructIPcEEvT_S7_St20forward_iterator_tag.isra.0, %function
_ZNSt7__cxx1112basic_stringIcSt11char_traitsIcESaIcEE12_M_constructIPcEEvT_S7_St20forward_iterator_tag.isra.0:
.LFB7662:
	.cfi_startproc
	stp	x29, x30, [sp, -64]!
	.cfi_def_cfa_offset 64
	.cfi_offset 29, -64
	.cfi_offset 30, -56
	cmp	x2, 0
	ccmp	x1, 0, 0, ne
	mov	x29, sp
	stp	x19, x20, [sp, 16]
	str	x21, [sp, 32]
	.cfi_offset 19, -48
	.cfi_offset 20, -40
	.cfi_offset 21, -32
	beq	.L14
	sub	x19, x2, x1
	str	x19, [sp, 56]
	mov	x21, x1
	mov	x20, x0
	cmp	x19, 15
	bhi	.L15
	ldr	x0, [x0]
	cmp	x19, 1
	bne	.L7
	ldrb	w1, [x1]
	strb	w1, [x0]
	ldr	x0, [x20]
	ldr	x19, [sp, 56]
	str	x19, [x20, 8]
	strb	wzr, [x0, x19]
	ldp	x19, x20, [sp, 16]
	ldr	x21, [sp, 32]
	ldp	x29, x30, [sp], 64
	.cfi_remember_state
	.cfi_restore 30
	.cfi_restore 29
	.cfi_restore 21
	.cfi_restore 19
	.cfi_restore 20
	.cfi_def_cfa_offset 0
	ret
	.p2align 2,,3
.L7:
	.cfi_restore_state
	cbnz	x19, .L6
	str	x19, [x20, 8]
	strb	wzr, [x0, x19]
	ldp	x19, x20, [sp, 16]
	ldr	x21, [sp, 32]
	ldp	x29, x30, [sp], 64
	.cfi_remember_state
	.cfi_restore 30
	.cfi_restore 29
	.cfi_restore 21
	.cfi_restore 19
	.cfi_restore 20
	.cfi_def_cfa_offset 0
	ret
	.p2align 2,,3
.L15:
	.cfi_restore_state
	add	x1, sp, 56
	mov	x2, 0
	bl	_ZNSt7__cxx1112basic_stringIcSt11char_traitsIcESaIcEE9_M_createERmm
	str	x0, [x20]
	ldr	x1, [sp, 56]
	str	x1, [x20, 16]
.L6:
	mov	x2, x19
	mov	x1, x21
	bl	memcpy
	ldr	x0, [x20]
	ldr	x19, [sp, 56]
	str	x19, [x20, 8]
	strb	wzr, [x0, x19]
	ldp	x19, x20, [sp, 16]
	ldr	x21, [sp, 32]
	ldp	x29, x30, [sp], 64
	.cfi_remember_state
	.cfi_restore 30
	.cfi_restore 29
	.cfi_restore 21
	.cfi_restore 19
	.cfi_restore 20
	.cfi_def_cfa_offset 0
	ret
.L14:
	.cfi_restore_state
	adrp	x0, .LC0
	add	x0, x0, :lo12:.LC0
	bl	_ZSt19__throw_logic_errorPKc
	.cfi_endproc
.LFE7662:
	.size	_ZNSt7__cxx1112basic_stringIcSt11char_traitsIcESaIcEE12_M_constructIPcEEvT_S7_St20forward_iterator_tag.isra.0, .-_ZNSt7__cxx1112basic_stringIcSt11char_traitsIcESaIcEE12_M_constructIPcEEvT_S7_St20forward_iterator_tag.isra.0
	.align	2
	.p2align 4,,11
	.global	_Z13StringProcessNSt7__cxx1112basic_stringIcSt11char_traitsIcESaIcEEEPi
	.type	_Z13StringProcessNSt7__cxx1112basic_stringIcSt11char_traitsIcESaIcEEEPi, %function
_Z13StringProcessNSt7__cxx1112basic_stringIcSt11char_traitsIcESaIcEEEPi:
.LFB7112:
	.cfi_startproc
	stp	x29, x30, [sp, -64]!
	.cfi_def_cfa_offset 64
	.cfi_offset 29, -64
	.cfi_offset 30, -56
	mov	x29, sp
	stp	x21, x22, [sp, 32]
	.cfi_offset 21, -32
	.cfi_offset 22, -24
	mov	x22, x1
	ldp	x21, x5, [x0]
	stp	x19, x20, [sp, 16]
	stp	x23, x24, [sp, 48]
	.cfi_offset 19, -48
	.cfi_offset 20, -40
	.cfi_offset 23, -16
	.cfi_offset 24, -8
	lsl	w2, w5, 3
	negs	w0, w2
	and	w2, w2, 511
	and	w0, w0, 511
	csneg	w0, w2, w0, mi
	cmp	w0, 448
	ble	.L17
	mov	w4, 960
	sub	w4, w4, w0
	asr	w4, w4, 3
	sub	w23, w4, #1
	sxtw	x23, w23
.L18:
	add	w19, w4, w5
	sxtw	x20, w5
	add	w24, w19, 8
	sxtw	x0, w24
	bl	_Znam
	mov	x1, x21
	mov	x21, x0
	mov	x2, x20
	bl	memcpy
	mov	w3, -128
	add	x0, x20, 1
	strb	w3, [x21, x20]
	mov	x2, x23
	add	x0, x21, x0
	mov	w1, 0
	bl	memset
	add	x4, x21, x19, sxtw
	lsl	x5, x20, 3
	mov	x2, 0
	.p2align 3,,7
.L19:
	lsl	w3, w2, 3
	lsr	x3, x5, x3
	strb	w3, [x4, x2]
	add	x2, x2, 1
	cmp	x2, 8
	bne	.L19
	ldp	x19, x20, [sp, 16]
	str	w24, [x22]
	mov	x0, x21
	ldp	x21, x22, [sp, 32]
	ldp	x23, x24, [sp, 48]
	ldp	x29, x30, [sp], 64
	.cfi_remember_state
	.cfi_restore 30
	.cfi_restore 29
	.cfi_restore 23
	.cfi_restore 24
	.cfi_restore 21
	.cfi_restore 22
	.cfi_restore 19
	.cfi_restore 20
	.cfi_def_cfa_offset 0
	ret
	.p2align 2,,3
.L17:
	.cfi_restore_state
	beq	.L20
	mov	w4, 448
	sub	w4, w4, w0
	asr	w4, w4, 3
	sub	w23, w4, #1
	sxtw	x23, w23
	b	.L18
	.p2align 2,,3
.L20:
	mov	w4, 64
	mov	x23, 63
	b	.L18
	.cfi_endproc
.LFE7112:
	.size	_Z13StringProcessNSt7__cxx1112basic_stringIcSt11char_traitsIcESaIcEEEPi, .-_Z13StringProcessNSt7__cxx1112basic_stringIcSt11char_traitsIcESaIcEEEPi
	.align	2
	.p2align 4,,11
	.global	_Z7MD5HashNSt7__cxx1112basic_stringIcSt11char_traitsIcESaIcEEEPj
	.type	_Z7MD5HashNSt7__cxx1112basic_stringIcSt11char_traitsIcESaIcEEEPj, %function
_Z7MD5HashNSt7__cxx1112basic_stringIcSt11char_traitsIcESaIcEEEPj:
.LFB7113:
	.cfi_startproc
	.cfi_personality 0x9b,DW.ref.__gxx_personality_v0
	.cfi_lsda 0x1b,.LLSDA7113
	stp	x29, x30, [sp, -176]!
	.cfi_def_cfa_offset 176
	.cfi_offset 29, -176
	.cfi_offset 30, -168
	mov	x29, sp
	stp	x19, x20, [sp, 16]
	.cfi_offset 19, -160
	.cfi_offset 20, -152
	mov	x20, x0
	mov	x19, x1
	mov	x0, 4
	stp	x21, x22, [sp, 32]
	stp	x23, x24, [sp, 48]
	stp	x25, x26, [sp, 64]
	stp	x27, x28, [sp, 80]
	.cfi_offset 21, -144
	.cfi_offset 22, -136
	.cfi_offset 23, -128
	.cfi_offset 24, -120
	.cfi_offset 25, -112
	.cfi_offset 26, -104
	.cfi_offset 27, -96
	.cfi_offset 28, -88
.LEHB0:
	bl	_Znam
	add	x3, sp, 128
	ldp	x1, x2, [x20]
	mov	x21, x0
	add	x0, sp, 112
	stp	x21, x3, [sp, 104]
	add	x2, x1, x2
	bl	_ZNSt7__cxx1112basic_stringIcSt11char_traitsIcESaIcEE12_M_constructIPcEEvT_S7_St20forward_iterator_tag.isra.0
.LEHE0:
	mov	x1, x21
	add	x0, sp, 112
.LEHB1:
	bl	_Z13StringProcessNSt7__cxx1112basic_stringIcSt11char_traitsIcESaIcEEEPi
.LEHE1:
	ldr	x2, [sp, 112]
	add	x1, sp, 128
	mov	x21, x0
	cmp	x2, x1
	beq	.L24
	ldr	x1, [sp, 128]
	mov	x0, x2
	add	x1, x1, 1
	bl	_ZdlPvm
.L24:
	ldr	x0, [sp, 104]
	mov	x2, 8961
	mov	x1, 56574
	movk	x2, 0x6745, lsl 16
	movk	x1, 0x98ba, lsl 16
	movk	x2, 0xab89, lsl 32
	ldr	w0, [x0]
	movk	x1, 0x5476, lsl 32
	movk	x2, 0xefcd, lsl 48
	movk	x1, 0x1032, lsl 48
	cmp	w0, 0
	add	w20, w0, 63
	csel	w20, w20, w0, lt
	stp	x2, x1, [x19]
	asr	w25, w20, 6
	cmp	w0, 63
	ble	.L39
	mov	w27, 21622
	mov	w28, 56574
	mov	w20, 43913
	mov	w22, 8961
	mov	x24, 0
	movk	w27, 0x1032, lsl 16
	movk	w28, 0x98ba, lsl 16
	movk	w20, 0xefcd, lsl 16
	movk	w22, 0x6745, lsl 16
	mov	w23, 0
	.p2align 3,,7
.L27:
	add	x0, x21, x24
	add	x4, sp, 112
	add	x6, sp, 176
	.p2align 3,,7
.L26:
	ldrb	w3, [x0, 3]
	add	x0, x0, 4
	ldrb	w1, [x0, -2]
	ldrb	w5, [x0, -4]
	ldrb	w2, [x0, -3]
	lsl	w3, w3, 24
	orr	w1, w3, w1, lsl 16
	orr	w2, w5, w2, lsl 8
	orr	w1, w1, w2
	str	w1, [x4], 4
	cmp	x6, x4
	bne	.L26
	bl	_ZNSt6chrono3_V212system_clock3nowEv
	add	w23, w23, 1
	ldp	w26, w9, [sp, 112]
	eor	w0, w28, w27
	and	w0, w0, w20
	mov	w1, 42104
	eor	w0, w0, w27
	movk	w1, 0xd76a, lsl 16
	add	w0, w0, w22
	add	w1, w26, w1
	add	w0, w0, w1
	eor	w3, w20, w28
	mov	w1, 46934
	mov	w4, 28891
	movk	w1, 0xe8c7, lsl 16
	ror	w0, w0, 25
	add	w0, w0, w20
	add	w1, w9, w1
	and	w3, w3, w0
	eor	w2, w0, w20
	eor	w3, w3, w28
	movk	w4, 0x2420, lsl 16
	add	w3, w3, w27
	mov	w22, 50730
	add	w3, w3, w1
	mov	w1, 52974
	ldp	w13, w11, [sp, 120]
	ror	w3, w3, 20
	add	w3, w3, w0
	movk	w1, 0xc1bd, lsl 16
	and	w2, w2, w3
	add	w7, w13, w4
	eor	w2, w2, w20
	ldr	w4, [sp, 128]
	add	w2, w2, w28
	add	w5, w11, w1
	add	w2, w2, w7
	mov	w1, 4015
	movk	w1, 0xf57c, lsl 16
	add	w14, w4, w1
	eor	w1, w0, w3
	ror	w2, w2, 15
	add	w2, w2, w3
	movk	w22, 0x4787, lsl 16
	and	w1, w1, w2
	eor	w10, w3, w2
	eor	w1, w1, w0
	mov	w12, 17939
	add	w1, w1, w20
	movk	w12, 0xa830, lsl 16
	add	w1, w1, w5
	mov	w7, 38145
	ldp	w17, w6, [sp, 132]
	ror	w1, w1, 10
	add	w1, w1, w2
	movk	w7, 0xfd46, lsl 16
	and	w10, w10, w1
	eor	w27, w2, w1
	eor	w10, w10, w3
	add	w22, w17, w22
	add	w0, w10, w0
	add	w12, w6, w12
	add	w0, w0, w14
	mov	w5, 39128
	ldp	w18, w8, [sp, 140]
	ror	w0, w0, 25
	add	w0, w0, w1
	movk	w5, 0x6980, lsl 16
	and	w27, w27, w0
	add	w7, w18, w7
	eor	w27, w27, w2
	add	w5, w8, w5
	add	w3, w27, w3
	eor	w27, w1, w0
	add	w3, w3, w22
	ldr	w15, [sp, 148]
	mov	w20, 63407
	mov	w16, -42063
	movk	w20, 0x8b44, lsl 16
	ror	w3, w3, 20
	add	w3, w3, w0
	add	w20, w15, w20
	and	w27, w27, w3
	mov	w22, 55230
	eor	w27, w27, w1
	movk	w22, 0x895c, lsl 16
	add	w2, w27, w2
	eor	w27, w0, w3
	add	w2, w2, w12
	mov	w28, 45888
	ldp	w10, w14, [sp, 152]
	ror	w2, w2, 15
	add	w2, w2, w3
	movk	w28, 0xc040, lsl 16
	and	w27, w27, w2
	add	w16, w10, w16
	eor	w27, w27, w0
	add	w22, w14, w22
	add	w1, w27, w1
	eor	w27, w3, w2
	add	w1, w1, w7
	mov	w7, 4386
	movk	w7, 0x6b90, lsl 16
	add	w28, w6, w28
	add	x24, x24, 64
	ror	w1, w1, 10
	add	w1, w1, w2
	and	w27, w27, w1
	eor	w27, w27, w3
	add	w0, w27, w0
	eor	w27, w2, w1
	add	w0, w0, w5
	ldp	w12, w5, [sp, 160]
	ror	w0, w0, 25
	add	w0, w0, w1
	and	w27, w27, w0
	add	w7, w12, w7
	eor	w27, w27, w2
	add	w3, w27, w3
	eor	w27, w1, w0
	add	w3, w3, w20
	mov	w20, 29075
	movk	w20, 0xfd98, lsl 16
	add	w20, w5, w20
	ror	w3, w3, 20
	add	w3, w3, w0
	and	w27, w27, w3
	eor	w27, w27, w1
	add	w2, w27, w2
	eor	w27, w0, w3
	add	w2, w2, w16
	ror	w2, w2, 15
	add	w2, w2, w3
	and	w27, w27, w2
	eor	w27, w27, w0
	add	w1, w27, w1
	eor	w27, w3, w2
	add	w1, w1, w22
	mov	w22, 17294
	movk	w22, 0xa679, lsl 16
	ror	w1, w1, 10
	add	w1, w1, w2
	and	w27, w27, w1
	eor	w27, w27, w3
	add	w0, w27, w0
	eor	w27, w2, w1
	add	w0, w0, w7
	ldp	w16, w7, [sp, 168]
	ror	w0, w0, 25
	add	w0, w0, w1
	and	w27, w27, w0
	add	w22, w16, w22
	eor	w27, w27, w2
	add	w3, w27, w3
	eor	w27, w1, w0
	add	w3, w3, w20
	mov	w20, 2081
	movk	w20, 0x49b4, lsl 16
	add	w20, w7, w20
	ror	w3, w3, 20
	add	w3, w3, w0
	and	w27, w27, w3
	eor	w27, w27, w1
	add	w2, w27, w2
	eor	w27, w0, w3
	add	w2, w2, w22
	mov	w22, 9570
	movk	w22, 0xf61e, lsl 16
	add	w22, w9, w22
	ror	w2, w2, 15
	add	w2, w2, w3
	and	w27, w27, w2
	eor	w27, w27, w0
	add	w1, w27, w1
	mov	w27, 23121
	add	w1, w1, w20
	movk	w27, 0x265e, lsl 16
	add	w27, w14, w27
	ror	w1, w1, 10
	add	w1, w1, w2
	eor	w20, w2, w1
	and	w20, w20, w3
	eor	w20, w20, w2
	add	w0, w20, w0
	add	w0, w0, w22
	mov	w22, 51114
	movk	w22, 0xe9b6, lsl 16
	add	w22, w26, w22
	ror	w0, w0, 27
	add	w0, w0, w1
	eor	w20, w1, w0
	and	w20, w20, w2
	eor	w20, w20, w1
	add	w3, w20, w3
	add	w3, w3, w28
	mov	w28, 4189
	movk	w28, 0xd62f, lsl 16
	add	w28, w17, w28
	ror	w3, w3, 23
	add	w3, w3, w0
	eor	w20, w0, w3
	and	w20, w20, w1
	eor	w20, w20, w0
	add	w2, w20, w2
	add	w2, w2, w27
	mov	w27, 5203
	movk	w27, 0x244, lsl 16
	add	w27, w10, w27
	ror	w2, w2, 18
	add	w2, w2, w3
	eor	w20, w3, w2
	and	w20, w20, w0
	eor	w20, w20, w3
	add	w1, w20, w1
	add	w1, w1, w22
	mov	w22, 59009
	movk	w22, 0xd8a1, lsl 16
	add	w22, w7, w22
	ror	w1, w1, 12
	add	w1, w1, w2
	eor	w20, w2, w1
	and	w20, w20, w3
	eor	w20, w20, w2
	add	w0, w20, w0
	add	w0, w0, w28
	mov	w28, 64456
	movk	w28, 0xe7d3, lsl 16
	add	w28, w4, w28
	ror	w0, w0, 27
	add	w0, w0, w1
	eor	w20, w1, w0
	and	w20, w20, w2
	eor	w20, w20, w1
	add	w3, w20, w3
	add	w3, w3, w27
	mov	w27, 52710
	movk	w27, 0x21e1, lsl 16
	add	w27, w15, w27
	ror	w3, w3, 23
	add	w3, w3, w0
	eor	w20, w0, w3
	and	w20, w20, w1
	eor	w20, w20, w0
	add	w2, w20, w2
	add	w2, w2, w22
	mov	w22, 2006
	movk	w22, 0xc337, lsl 16
	add	w22, w16, w22
	ror	w2, w2, 18
	add	w2, w2, w3
	eor	w20, w3, w2
	and	w20, w20, w0
	eor	w20, w20, w3
	add	w1, w20, w1
	add	w1, w1, w28
	mov	w28, 3463
	movk	w28, 0xf4d5, lsl 16
	add	w28, w11, w28
	ror	w1, w1, 12
	add	w1, w1, w2
	eor	w20, w2, w1
	and	w20, w20, w3
	eor	w20, w20, w2
	add	w0, w20, w0
	add	w0, w0, w27
	mov	w27, 5357
	movk	w27, 0x455a, lsl 16
	add	w27, w8, w27
	ror	w0, w0, 27
	add	w0, w0, w1
	eor	w20, w1, w0
	and	w20, w20, w2
	eor	w20, w20, w1
	add	w3, w20, w3
	add	w3, w3, w22
	mov	w22, 59653
	movk	w22, 0xa9e3, lsl 16
	add	w22, w5, w22
	ror	w3, w3, 23
	add	w3, w3, w0
	eor	w20, w0, w3
	and	w20, w20, w1
	eor	w20, w20, w0
	add	w2, w20, w2
	add	w2, w2, w28
	mov	w28, 41976
	movk	w28, 0xfcef, lsl 16
	add	w28, w13, w28
	ror	w2, w2, 18
	add	w2, w2, w3
	eor	w20, w3, w2
	and	w20, w20, w0
	eor	w20, w20, w3
	add	w1, w20, w1
	add	w1, w1, w27
	mov	w27, 729
	movk	w27, 0x676f, lsl 16
	add	w27, w18, w27
	ror	w1, w1, 12
	add	w1, w1, w2
	eor	w20, w2, w1
	and	w20, w20, w3
	eor	w20, w20, w2
	add	w0, w20, w0
	add	w0, w0, w22
	mov	w22, 19594
	movk	w22, 0x8d2a, lsl 16
	add	w22, w12, w22
	ror	w0, w0, 27
	add	w0, w0, w1
	eor	w20, w1, w0
	and	w20, w20, w2
	eor	w20, w20, w1
	add	w3, w20, w3
	add	w3, w3, w28
	ror	w3, w3, 23
	add	w3, w3, w0
	eor	w20, w0, w3
	and	w20, w20, w1
	eor	w20, w20, w0
	add	w2, w20, w2
	sub	w20, w17, #376832
	add	w2, w2, w27
	sub	w20, w20, #1726
	ror	w2, w2, 18
	add	w2, w2, w3
	eor	w27, w3, w2
	and	w28, w27, w0
	eor	w28, w28, w3
	add	w1, w28, w1
	mov	w28, 63105
	add	w22, w1, w22
	movk	w28, 0x8771, lsl 16
	add	w28, w8, w28
	ror	w22, w22, 12
	add	w22, w22, w2
	eor	w27, w27, w22
	eor	w1, w2, w22
	add	w0, w27, w0
	mov	w27, 24866
	add	w0, w0, w20
	movk	w27, 0x6d9d, lsl 16
	add	w27, w14, w27
	ror	w0, w0, 28
	add	w0, w0, w22
	eor	w20, w1, w0
	add	w20, w20, w3
	eor	w3, w22, w0
	add	w20, w20, w28
	mov	w28, 14348
	movk	w28, 0xfde5, lsl 16
	add	w28, w16, w28
	ror	w20, w20, 21
	add	w20, w20, w0
	eor	w3, w3, w20
	add	w3, w3, w2
	eor	w2, w0, w20
	add	w3, w3, w27
	mov	w27, 59972
	movk	w27, 0xa4be, lsl 16
	add	w27, w9, w27
	ror	w3, w3, 16
	add	w3, w3, w20
	eor	w2, w2, w3
	eor	w1, w20, w3
	add	w2, w2, w22
	mov	w22, 53161
	add	w2, w2, w28
	movk	w22, 0x4bde, lsl 16
	add	w22, w4, w22
	mov	w28, 19296
	movk	w28, 0xf6bb, lsl 16
	ror	w2, w2, 9
	add	w2, w2, w3
	add	w28, w18, w28
	eor	w1, w1, w2
	add	w1, w1, w0
	eor	w0, w3, w2
	add	w1, w1, w27
	ror	w1, w1, 28
	add	w1, w1, w2
	eor	w0, w0, w1
	add	w0, w0, w20
	eor	w20, w2, w1
	add	w0, w0, w22
	mov	w22, 48240
	movk	w22, 0xbebf, lsl 16
	add	w22, w10, w22
	sub	w10, w10, #1048576
	ror	w0, w0, 21
	add	w0, w0, w1
	sub	w10, w10, #2947
	eor	w20, w20, w0
	eor	w27, w1, w0
	add	w3, w20, w3
	mov	w20, 32454
	add	w3, w3, w28
	movk	w20, 0x289b, lsl 16
	add	w20, w5, w20
	ror	w3, w3, 16
	add	w3, w3, w0
	eor	w27, w27, w3
	add	w2, w27, w2
	eor	w27, w0, w3
	add	w2, w2, w22
	mov	w22, 10234
	movk	w22, 0xeaa1, lsl 16
	add	w22, w26, w22
	ror	w2, w2, 9
	add	w2, w2, w3
	eor	w27, w27, w2
	add	w1, w27, w1
	eor	w27, w3, w2
	add	w1, w1, w20
	mov	w20, 12421
	movk	w20, 0xd4ef, lsl 16
	add	w20, w11, w20
	ror	w1, w1, 28
	add	w1, w1, w2
	eor	w27, w27, w1
	add	w0, w27, w0
	eor	w27, w2, w1
	add	w0, w0, w22
	mov	w22, 7429
	movk	w22, 0x488, lsl 16
	add	w22, w6, w22
	ror	w0, w0, 21
	add	w0, w0, w1
	eor	w27, w27, w0
	add	w3, w27, w3
	eor	w27, w1, w0
	add	w3, w3, w20
	mov	w20, 53305
	movk	w20, 0xd9d4, lsl 16
	add	w20, w15, w20
	ror	w3, w3, 16
	add	w3, w3, w0
	eor	w27, w27, w3
	add	w2, w27, w2
	eor	w27, w0, w3
	add	w2, w2, w22
	mov	w22, 39397
	movk	w22, 0xe6db, lsl 16
	add	w22, w12, w22
	ror	w2, w2, 9
	add	w2, w2, w3
	eor	w27, w27, w2
	add	w1, w27, w1
	eor	w27, w3, w2
	add	w1, w1, w20
	mov	w20, 31992
	movk	w20, 0x1fa2, lsl 16
	add	w20, w7, w20
	ror	w1, w1, 28
	add	w1, w1, w2
	eor	w27, w27, w1
	add	w0, w27, w0
	eor	w27, w2, w1
	add	w0, w0, w22
	mov	w22, 22117
	movk	w22, 0xc4ac, lsl 16
	add	w22, w13, w22
	ror	w0, w0, 21
	add	w0, w0, w1
	eor	w27, w27, w0
	add	w3, w27, w3
	eor	w27, w1, w0
	add	w3, w3, w20
	mov	w20, 8772
	movk	w20, 0xf429, lsl 16
	add	w20, w26, w20
	mov	w26, 65431
	ror	w3, w3, 16
	add	w3, w3, w0
	movk	w26, 0x432a, lsl 16
	add	w18, w18, w26
	eor	w26, w27, w3
	add	w2, w26, w2
	mov	w27, 9127
	add	w2, w2, w22
	mov	w22, 41017
	movk	w22, 0xfc93, lsl 16
	add	w17, w17, w22
	mov	w22, 22979
	ror	w2, w2, 9
	add	w2, w2, w3
	movk	w22, 0x655b, lsl 16
	add	w12, w12, w22
	orn	w22, w2, w0
	eor	w22, w22, w3
	movk	w27, 0xab94, lsl 16
	add	w1, w22, w1
	add	w16, w16, w27
	add	w1, w1, w20
	mov	w20, 32335
	movk	w20, 0x6fa8, lsl 16
	add	w8, w8, w20
	mov	w26, 52370
	ror	w1, w1, 26
	add	w1, w1, w2
	movk	w26, 0x8f0c, lsl 16
	orn	w20, w1, w3
	add	w11, w11, w26
	eor	w20, w20, w2
	mov	w22, 24017
	add	w0, w20, w0
	mov	w20, 62005
	add	w0, w0, w18
	mov	w18, 4513
	movk	w18, 0x4e08, lsl 16
	add	w5, w5, w18
	mov	w18, 32386
	ror	w0, w0, 22
	add	w0, w0, w1
	movk	w18, 0xf753, lsl 16
	add	w4, w4, w18
	orn	w18, w0, w2
	eor	w18, w18, w1
	movk	w20, 0xbd3a, lsl 16
	add	w18, w18, w3
	add	w14, w14, w20
	add	w18, w18, w16
	movk	w22, 0x8584, lsl 16
	add	w9, w9, w22
	mov	w22, 59104
	movk	w22, 0xfe2c, lsl 16
	ror	w18, w18, 17
	add	w18, w18, w0
	add	w7, w7, w22
	orn	w20, w18, w1
	mov	w22, 17172
	eor	w20, w20, w0
	movk	w22, 0xa301, lsl 16
	add	w2, w20, w2
	add	w6, w6, w22
	add	w17, w2, w17
	mov	w3, 53947
	movk	w3, 0x2ad7, lsl 16
	add	w13, w13, w3
	mov	w3, 54161
	ror	w17, w17, 11
	add	w17, w17, w18
	movk	w3, 0xeb86, lsl 16
	orn	w2, w17, w0
	add	w3, w15, w3
	eor	w2, w2, w18
	add	w1, w2, w1
	add	w12, w1, w12
	ldp	w22, w16, [x19]
	ror	w12, w12, 26
	add	w12, w12, w17
	orn	w2, w12, w18
	eor	w2, w2, w17
	add	w2, w2, w0
	add	w2, w2, w11
	ldp	w15, w27, [x19, 8]
	ror	w2, w2, 22
	add	w2, w2, w12
	orn	w1, w2, w17
	eor	w1, w1, w12
	add	w1, w1, w18
	add	w1, w1, w10
	ror	w1, w1, 17
	add	w1, w1, w2
	orn	w0, w1, w12
	eor	w0, w0, w2
	add	w0, w0, w17
	add	w0, w0, w9
	ror	w0, w0, 11
	add	w0, w0, w1
	orn	w9, w0, w2
	eor	w9, w9, w1
	add	w9, w9, w12
	add	w8, w9, w8
	ror	w8, w8, 26
	add	w8, w8, w0
	orn	w9, w8, w1
	eor	w9, w9, w0
	add	w2, w9, w2
	add	w7, w2, w7
	ror	w7, w7, 22
	add	w7, w7, w8
	orn	w2, w7, w0
	eor	w2, w2, w8
	add	w2, w2, w1
	add	w2, w2, w6
	ror	w2, w2, 17
	add	w2, w2, w7
	orn	w1, w2, w8
	eor	w1, w1, w7
	add	w1, w1, w0
	add	w1, w1, w5
	ror	w1, w1, 11
	add	w1, w1, w2
	orn	w0, w1, w7
	eor	w0, w0, w2
	add	w0, w0, w8
	add	w0, w0, w4
	ror	w0, w0, 26
	add	w0, w0, w1
	orn	w4, w0, w2
	add	w22, w0, w22
	eor	w4, w4, w1
	add	w4, w4, w7
	add	w4, w4, w14
	ror	w4, w4, 22
	add	w4, w4, w0
	orn	w28, w4, w1
	add	w27, w4, w27
	eor	w28, w28, w0
	add	w28, w28, w2
	add	w28, w28, w13
	ror	w28, w28, 17
	add	w28, w28, w4
	orn	w20, w28, w0
	add	w16, w28, w16
	eor	w20, w20, w4
	add	w28, w28, w15
	add	w20, w20, w1
	stp	w28, w27, [x19, 8]
	add	w20, w20, w3
	ror	w20, w20, 11
	add	w20, w20, w16
	stp	w22, w20, [x19]
	cmp	w25, w23
	bgt	.L27
	rev	w2, w22
.L25:
	mov	x0, 0
	str	w2, [x19, x0]
	add	x0, x0, 4
	cmp	x0, 16
	beq	.L40
.L54:
	ldr	w2, [x19, x0]
	rev	w2, w2
	str	w2, [x19, x0]
	add	x0, x0, 4
	cmp	x0, 16
	bne	.L54
.L40:
	adrp	x20, _ZSt4cout
	adrp	x23, _ZNKSt5ctypeIcE8do_widenEc
	add	x20, x20, :lo12:_ZSt4cout
	add	x23, x23, :lo12:_ZNKSt5ctypeIcE8do_widenEc
	mov	x26, 0
	mov	x22, 8
	mov	w24, 1
.L28:
	ldr	x1, [x20]
	ldr	x0, [x1, -24]
	add	x0, x20, x0
	str	x22, [x0, 16]
	ldr	x25, [x1, -24]
	add	x25, x20, x25
	ldrb	w0, [x25, 225]
	cbz	w0, .L55
.L30:
	mov	w0, 48
	strb	w0, [x25, 224]
	mov	w4, -75
	mov	x0, x20
	ldr	x3, [x1, -24]
	ldr	w1, [x19, x26, lsl 2]
	add	x26, x26, 1
	add	x3, x20, x3
	ldr	w2, [x3, 24]
	and	w2, w2, w4
	orr	w2, w2, 8
	str	w2, [x3, 24]
.LEHB2:
	bl	_ZNSo9_M_insertImEERSoT_
	cmp	x26, 4
	bne	.L28
	ldr	x0, [x20]
	ldr	x0, [x0, -24]
	add	x0, x20, x0
	ldr	x19, [x0, 240]
	cbz	x19, .L34
	ldrb	w0, [x19, 56]
	cbz	w0, .L35
	ldrb	w1, [x19, 67]
.L36:
	mov	x0, x20
	bl	_ZNSo3putEc
	bl	_ZNSo5flushEv
	cbz	x21, .L37
	mov	x0, x21
	bl	_ZdaPv
.L37:
	ldp	x19, x20, [sp, 16]
	ldp	x21, x22, [sp, 32]
	ldp	x23, x24, [sp, 48]
	ldp	x25, x26, [sp, 64]
	ldp	x27, x28, [sp, 80]
	ldr	x0, [sp, 104]
	ldp	x29, x30, [sp], 176
	.cfi_remember_state
	.cfi_restore 30
	.cfi_restore 29
	.cfi_restore 27
	.cfi_restore 28
	.cfi_restore 25
	.cfi_restore 26
	.cfi_restore 23
	.cfi_restore 24
	.cfi_restore 21
	.cfi_restore 22
	.cfi_restore 19
	.cfi_restore 20
	.cfi_def_cfa_offset 0
	b	_ZdaPv
.L55:
	.cfi_restore_state
	ldr	x27, [x25, 240]
	cbz	x27, .L34
	ldrb	w0, [x27, 56]
	cbnz	w0, .L32
	mov	x0, x27
	bl	_ZNKSt5ctypeIcE13_M_widen_initEv
	ldr	x0, [x27]
	ldr	x2, [x0, 48]
	cmp	x2, x23
	bne	.L56
	ldr	x1, [x20]
.L32:
	strb	w24, [x25, 225]
	b	.L30
.L35:
	mov	x0, x19
	bl	_ZNKSt5ctypeIcE13_M_widen_initEv
	ldr	x2, [x19]
	adrp	x0, _ZNKSt5ctypeIcE8do_widenEc
	add	x0, x0, :lo12:_ZNKSt5ctypeIcE8do_widenEc
	mov	w1, 10
	ldr	x2, [x2, 48]
	cmp	x2, x0
	beq	.L36
	mov	x0, x19
	blr	x2
	and	w1, w0, 255
	b	.L36
.L56:
	mov	w1, 32
	mov	x0, x27
	blr	x2
	ldr	x1, [x20]
	b	.L32
.L39:
	mov	w2, 17767
	movk	w2, 0x123, lsl 16
	b	.L25
.L34:
	bl	_ZSt16__throw_bad_castv
.L42:
	mov	x19, x0
	add	x0, sp, 112
	bl	_ZNSt7__cxx1112basic_stringIcSt11char_traitsIcESaIcEE10_M_disposeEv
	mov	x0, x19
	bl	_Unwind_Resume
.LEHE2:
	.cfi_endproc
.LFE7113:
	.global	__gxx_personality_v0
	.section	.gcc_except_table,"a",@progbits
.LLSDA7113:
	.byte	0xff
	.byte	0xff
	.byte	0x1
	.uleb128 .LLSDACSE7113-.LLSDACSB7113
.LLSDACSB7113:
	.uleb128 .LEHB0-.LFB7113
	.uleb128 .LEHE0-.LEHB0
	.uleb128 0
	.uleb128 0
	.uleb128 .LEHB1-.LFB7113
	.uleb128 .LEHE1-.LEHB1
	.uleb128 .L42-.LFB7113
	.uleb128 0
	.uleb128 .LEHB2-.LFB7113
	.uleb128 .LEHE2-.LEHB2
	.uleb128 0
	.uleb128 0
.LLSDACSE7113:
	.text
	.size	_Z7MD5HashNSt7__cxx1112basic_stringIcSt11char_traitsIcESaIcEEEPj, .-_Z7MD5HashNSt7__cxx1112basic_stringIcSt11char_traitsIcESaIcEEEPj
	.align	2
	.p2align 4,,11
	.global	_Z12MD5Hash_SIMDRSt6vectorINSt7__cxx1112basic_stringIcSt11char_traitsIcESaIcEEESaIS5_EEPA4_j
	.type	_Z12MD5Hash_SIMDRSt6vectorINSt7__cxx1112basic_stringIcSt11char_traitsIcESaIcEEESaIS5_EEPA4_j, %function
_Z12MD5Hash_SIMDRSt6vectorINSt7__cxx1112basic_stringIcSt11char_traitsIcESaIcEEESaIS5_EEPA4_j:
.LFB7114:
	.cfi_startproc
	.cfi_personality 0x9b,DW.ref.__gxx_personality_v0
	.cfi_lsda 0x1b,.LLSDA7114
	sub	sp, sp, #560
	.cfi_def_cfa_offset 560
	stp	x29, x30, [sp]
	.cfi_offset 29, -560
	.cfi_offset 30, -552
	mov	x29, sp
	stp	x21, x22, [sp, 32]
	.cfi_offset 21, -528
	.cfi_offset 22, -520
	add	x21, sp, 272
	mov	x22, 0
	stp	x19, x20, [sp, 16]
	.cfi_offset 19, -544
	.cfi_offset 20, -536
	mov	x19, x1
	mov	w20, 0
	stp	x23, x24, [sp, 48]
	.cfi_offset 23, -512
	.cfi_offset 24, -504
	add	x24, sp, 208
	mov	x23, x21
	stp	x25, x26, [sp, 64]
	.cfi_offset 25, -496
	.cfi_offset 26, -488
	mov	x26, x0
	add	x25, sp, 320
.L59:
	ldr	x1, [x26]
	add	x0, sp, 304
	add	x2, x1, x22
	ldr	x2, [x2, 8]
	str	x25, [sp, 304]
	ldr	x1, [x1, x22]
	add	x2, x1, x2
.LEHB3:
	bl	_ZNSt7__cxx1112basic_stringIcSt11char_traitsIcESaIcEE12_M_constructIPcEEvT_S7_St20forward_iterator_tag.isra.0
.LEHE3:
	mov	x1, x24
	add	x0, sp, 304
.LEHB4:
	bl	_Z13StringProcessNSt7__cxx1112basic_stringIcSt11char_traitsIcESaIcEEEPi
.LEHE4:
	str	x0, [x23]
	ldr	x0, [sp, 304]
	cmp	x0, x25
	beq	.L58
	ldr	x1, [sp, 320]
	add	x1, x1, 1
	bl	_ZdlPvm
.L58:
	ldr	w1, [x24], 4
	add	x22, x22, 32
	add	x23, x23, 8
	cmp	w1, 0
	add	w0, w1, 63
	csel	w0, w0, w1, lt
	asr	w0, w0, 6
	cmp	w20, w0
	csel	w20, w20, w0, ge
	cmp	x22, 128
	bne	.L59
	stp	d14, d15, [sp, 128]
	.cfi_offset 79, -424
	.cfi_offset 78, -432
	cbz	w20, .L69
	adrp	x0, .LC1
	add	x22, sp, 256
	add	x24, sp, 560
	mov	w25, 0
	ldr	q22, [x0, #:lo12:.LC1]
	adrp	x0, .LC2
	mov	w23, 0
	stp	d8, d9, [sp, 80]
	.cfi_offset 73, -472
	.cfi_offset 72, -480
	ldr	q4, [x0, #:lo12:.LC2]
	adrp	x0, .LC3
	stp	d10, d11, [sp, 96]
	.cfi_offset 75, -456
	.cfi_offset 74, -464
	ldr	q3, [x0, #:lo12:.LC3]
	adrp	x0, .LC4
	stp	d12, d13, [sp, 112]
	.cfi_offset 77, -440
	.cfi_offset 76, -448
	ldr	q15, [x0, #:lo12:.LC4]
	.p2align 3,,7
.L64:
	add	w9, w25, 2
	add	x10, sp, 304
	.p2align 3,,7
.L63:
	sub	w8, w9, #2
	sub	w7, w9, #1
	add	w6, w9, 1
	sxtw	x11, w9
	sxtw	x8, w8
	sxtw	x7, w7
	sxtw	x6, w6
	mov	x1, 1
.L62:
	lsl	x0, x1, 2
	add	x3, sp, 208
	add	x3, x3, x0
	mov	w2, 0
	ldr	w4, [x3, -4]
	cmp	w4, 0
	add	w3, w4, 63
	csel	w3, w3, w4, lt
	cmp	w23, w3, asr 6
	bge	.L61
	add	x2, sp, 272
	add	x2, x2, x1, lsl 3
	ldr	x3, [x2, -8]
	ldrb	w5, [x3, x11]
	ldrb	w2, [x3, x7]
	ldrb	w4, [x3, x6]
	ldrb	w12, [x3, x8]
	lsl	w3, w5, 16
	orr	w2, w3, w2, lsl 8
	orr	w3, w12, w4, lsl 24
	orr	w2, w2, w3
.L61:
	add	x0, x22, x0
	add	x1, x1, 1
	str	w2, [x0, -4]
	cmp	x1, 5
	bne	.L62
	ldr	q0, [x22]
	add	w9, w9, 4
	str	q0, [x10], 16
	cmp	x10, x24
	bne	.L63
	stp	q3, q15, [sp, 144]
	add	w23, w23, 1
	add	w25, w25, 64
	stp	q22, q4, [sp, 176]
	bl	_ZNSt6chrono3_V212system_clock3nowEv
	adrp	x0, .LC5
	ldp	q3, q15, [sp, 144]
	ldr	q1, [x0, #:lo12:.LC5]
	adrp	x0, .LC6
	ldp	q31, q24, [sp, 304]
	mov	v0.16b, v3.16b
	ldp	q22, q4, [sp, 176]
	add	v1.4s, v31.4s, v1.4s
	ldr	q2, [x0, #:lo12:.LC6]
	adrp	x0, .LC7
	bsl	v0.16b, v4.16b, v22.16b
	add	v1.4s, v1.4s, v15.4s
	add	v2.4s, v24.4s, v2.4s
	ldr	q5, [x0, #:lo12:.LC7]
	adrp	x0, .LC8
	add	v0.4s, v0.4s, v1.4s
	add	v2.4s, v2.4s, v22.4s
	ldp	q16, q26, [sp, 336]
	shl	v1.4s, v0.4s, 7
	ushr	v0.4s, v0.4s, 25
	add	v5.4s, v16.4s, v5.4s
	ldr	q12, [x0, #:lo12:.LC8]
	adrp	x0, .LC9
	orr	v0.16b, v0.16b, v1.16b
	add	v5.4s, v5.4s, v4.4s
	ldr	q11, [x0, #:lo12:.LC9]
	adrp	x0, .LC10
	add	v0.4s, v0.4s, v3.4s
	ldp	q18, q28, [sp, 368]
	add	v12.4s, v26.4s, v12.4s
	mov	v1.16b, v0.16b
	add	v11.4s, v18.4s, v11.4s
	ldr	q10, [x0, #:lo12:.LC10]
	adrp	x0, .LC11
	bsl	v1.16b, v3.16b, v4.16b
	add	v12.4s, v12.4s, v3.4s
	add	v11.4s, v11.4s, v0.4s
	add	v10.4s, v28.4s, v10.4s
	add	v1.4s, v1.4s, v2.4s
	ldr	q21, [x0, #:lo12:.LC11]
	adrp	x0, .LC12
	ldp	q20, q30, [sp, 400]
	shl	v2.4s, v1.4s, 12
	ushr	v1.4s, v1.4s, 20
	add	v21.4s, v20.4s, v21.4s
	ldr	q9, [x0, #:lo12:.LC12]
	adrp	x0, .LC13
	orr	v1.16b, v1.16b, v2.16b
	ldr	q8, [x0, #:lo12:.LC13]
	adrp	x0, .LC14
	add	v9.4s, v30.4s, v9.4s
	add	v1.4s, v1.4s, v0.4s
	ldp	q23, q14, [sp, 432]
	ldr	q7, [x0, #:lo12:.LC14]
	adrp	x0, .LC15
	mov	v2.16b, v1.16b
	add	v10.4s, v10.4s, v1.4s
	add	v8.4s, v23.4s, v8.4s
	add	v7.4s, v14.4s, v7.4s
	bsl	v2.16b, v0.16b, v3.16b
	ldr	q6, [x0, #:lo12:.LC15]
	adrp	x0, .LC16
	ldp	q25, q17, [sp, 464]
	add	v2.4s, v2.4s, v5.4s
	ldp	q27, q19, [sp, 496]
	add	v6.4s, v25.4s, v6.4s
	shl	v5.4s, v2.4s, 17
	ushr	v2.4s, v2.4s, 15
	orr	v2.16b, v2.16b, v5.16b
	ldr	q5, [x0, #:lo12:.LC16]
	adrp	x0, .LC17
	add	v2.4s, v2.4s, v1.4s
	add	v5.4s, v17.4s, v5.4s
	ldr	q13, [x0, #:lo12:.LC17]
	adrp	x0, .LC18
	bit	v0.16b, v1.16b, v2.16b
	add	v21.4s, v21.4s, v2.4s
	add	v13.4s, v27.4s, v13.4s
	add	v0.4s, v0.4s, v12.4s
	shl	v12.4s, v0.4s, 22
	ushr	v0.4s, v0.4s, 10
	orr	v0.16b, v0.16b, v12.16b
	ldr	q12, [x0, #:lo12:.LC18]
	adrp	x0, .LC19
	add	v0.4s, v0.4s, v2.4s
	add	v12.4s, v19.4s, v12.4s
	bit	v1.16b, v2.16b, v0.16b
	add	v9.4s, v9.4s, v0.4s
	add	v1.4s, v1.4s, v11.4s
	ldr	q11, [x0, #:lo12:.LC19]
	adrp	x0, .LC20
	shl	v29.4s, v1.4s, 7
	ushr	v1.4s, v1.4s, 25
	orr	v1.16b, v1.16b, v29.16b
	add	v1.4s, v1.4s, v0.4s
	bit	v2.16b, v0.16b, v1.16b
	add	v8.4s, v8.4s, v1.4s
	add	v2.4s, v2.4s, v10.4s
	shl	v10.4s, v2.4s, 12
	ushr	v2.4s, v2.4s, 20
	orr	v2.16b, v2.16b, v10.16b
	ldr	q10, [x0, #:lo12:.LC20]
	adrp	x0, .LC21
	add	v2.4s, v2.4s, v1.4s
	bit	v0.16b, v1.16b, v2.16b
	add	v7.4s, v7.4s, v2.4s
	add	v0.4s, v0.4s, v21.4s
	shl	v21.4s, v0.4s, 17
	ushr	v0.4s, v0.4s, 15
	orr	v0.16b, v0.16b, v21.16b
	ldp	q29, q21, [sp, 528]
	add	v0.4s, v0.4s, v2.4s
	add	v11.4s, v29.4s, v11.4s
	add	v10.4s, v21.4s, v10.4s
	bit	v1.16b, v2.16b, v0.16b
	add	v6.4s, v6.4s, v0.4s
	add	v1.4s, v1.4s, v9.4s
	shl	v9.4s, v1.4s, 22
	ushr	v1.4s, v1.4s, 10
	orr	v1.16b, v1.16b, v9.16b
	ldr	q9, [x0, #:lo12:.LC21]
	adrp	x0, .LC22
	add	v1.4s, v1.4s, v0.4s
	add	v9.4s, v24.4s, v9.4s
	bit	v2.16b, v0.16b, v1.16b
	add	v5.4s, v5.4s, v1.4s
	add	v2.4s, v2.4s, v8.4s
	shl	v8.4s, v2.4s, 7
	ushr	v2.4s, v2.4s, 25
	orr	v2.16b, v2.16b, v8.16b
	ldr	q8, [x0, #:lo12:.LC22]
	adrp	x0, .LC23
	add	v2.4s, v2.4s, v1.4s
	add	v8.4s, v20.4s, v8.4s
	bit	v0.16b, v1.16b, v2.16b
	add	v13.4s, v13.4s, v2.4s
	add	v0.4s, v0.4s, v7.4s
	shl	v7.4s, v0.4s, 12
	ushr	v0.4s, v0.4s, 20
	orr	v0.16b, v0.16b, v7.16b
	ldr	q7, [x0, #:lo12:.LC23]
	adrp	x0, .LC24
	add	v0.4s, v0.4s, v2.4s
	add	v7.4s, v17.4s, v7.4s
	bit	v1.16b, v2.16b, v0.16b
	add	v12.4s, v12.4s, v0.4s
	add	v1.4s, v1.4s, v6.4s
	shl	v6.4s, v1.4s, 17
	ushr	v1.4s, v1.4s, 15
	orr	v1.16b, v1.16b, v6.16b
	ldr	q6, [x0, #:lo12:.LC24]
	adrp	x0, .LC25
	add	v1.4s, v1.4s, v0.4s
	add	v6.4s, v31.4s, v6.4s
	bit	v2.16b, v0.16b, v1.16b
	add	v11.4s, v11.4s, v1.4s
	add	v2.4s, v2.4s, v5.4s
	shl	v5.4s, v2.4s, 22
	ushr	v2.4s, v2.4s, 10
	orr	v2.16b, v2.16b, v5.16b
	ldr	q5, [x0, #:lo12:.LC25]
	adrp	x0, .LC26
	add	v2.4s, v2.4s, v1.4s
	add	v5.4s, v28.4s, v5.4s
	bit	v0.16b, v1.16b, v2.16b
	add	v10.4s, v10.4s, v2.4s
	add	v0.4s, v0.4s, v13.4s
	shl	v13.4s, v0.4s, 7
	ushr	v0.4s, v0.4s, 25
	orr	v0.16b, v0.16b, v13.16b
	ldr	q13, [x0, #:lo12:.LC26]
	adrp	x0, .LC27
	add	v0.4s, v0.4s, v2.4s
	add	v13.4s, v25.4s, v13.4s
	bit	v1.16b, v2.16b, v0.16b
	add	v9.4s, v9.4s, v0.4s
	add	v1.4s, v1.4s, v12.4s
	shl	v12.4s, v1.4s, 12
	ushr	v1.4s, v1.4s, 20
	orr	v1.16b, v1.16b, v12.16b
	ldr	q12, [x0, #:lo12:.LC27]
	adrp	x0, .LC28
	add	v1.4s, v1.4s, v0.4s
	add	v12.4s, v21.4s, v12.4s
	bit	v2.16b, v0.16b, v1.16b
	add	v8.4s, v8.4s, v1.4s
	add	v2.4s, v2.4s, v11.4s
	shl	v11.4s, v2.4s, 17
	ushr	v2.4s, v2.4s, 15
	orr	v2.16b, v2.16b, v11.16b
	ldr	q11, [x0, #:lo12:.LC28]
	adrp	x0, .LC29
	add	v2.4s, v2.4s, v1.4s
	add	v11.4s, v18.4s, v11.4s
	bit	v0.16b, v1.16b, v2.16b
	add	v7.4s, v7.4s, v2.4s
	add	v0.4s, v0.4s, v10.4s
	shl	v10.4s, v0.4s, 22
	ushr	v0.4s, v0.4s, 10
	orr	v0.16b, v0.16b, v10.16b
	ldr	q10, [x0, #:lo12:.LC29]
	adrp	x0, .LC30
	add	v0.4s, v0.4s, v2.4s
	add	v10.4s, v14.4s, v10.4s
	bsl	v1.16b, v0.16b, v2.16b
	add	v6.4s, v6.4s, v0.4s
	add	v1.4s, v1.4s, v9.4s
	shl	v9.4s, v1.4s, 5
	ushr	v1.4s, v1.4s, 27
	orr	v1.16b, v1.16b, v9.16b
	ldr	q9, [x0, #:lo12:.LC30]
	adrp	x0, .LC31
	add	v1.4s, v1.4s, v0.4s
	add	v9.4s, v29.4s, v9.4s
	bsl	v2.16b, v1.16b, v0.16b
	add	v5.4s, v5.4s, v1.4s
	add	v2.4s, v2.4s, v8.4s
	shl	v8.4s, v2.4s, 9
	ushr	v2.4s, v2.4s, 23
	orr	v2.16b, v2.16b, v8.16b
	ldr	q8, [x0, #:lo12:.LC31]
	adrp	x0, .LC32
	add	v2.4s, v2.4s, v1.4s
	add	v8.4s, v26.4s, v8.4s
	bsl	v0.16b, v2.16b, v1.16b
	add	v13.4s, v13.4s, v2.4s
	add	v0.4s, v0.4s, v7.4s
	shl	v7.4s, v0.4s, 14
	ushr	v0.4s, v0.4s, 18
	orr	v0.16b, v0.16b, v7.16b
	ldr	q7, [x0, #:lo12:.LC32]
	adrp	x0, .LC33
	add	v0.4s, v0.4s, v2.4s
	add	v7.4s, v23.4s, v7.4s
	bsl	v1.16b, v0.16b, v2.16b
	add	v12.4s, v12.4s, v0.4s
	add	v1.4s, v1.4s, v6.4s
	shl	v6.4s, v1.4s, 20
	ushr	v1.4s, v1.4s, 12
	orr	v1.16b, v1.16b, v6.16b
	ldr	q6, [x0, #:lo12:.LC33]
	adrp	x0, .LC34
	add	v1.4s, v1.4s, v0.4s
	add	v6.4s, v19.4s, v6.4s
	bsl	v2.16b, v1.16b, v0.16b
	add	v11.4s, v11.4s, v1.4s
	add	v2.4s, v2.4s, v5.4s
	shl	v5.4s, v2.4s, 5
	ushr	v2.4s, v2.4s, 27
	orr	v2.16b, v2.16b, v5.16b
	ldr	q5, [x0, #:lo12:.LC34]
	adrp	x0, .LC35
	add	v2.4s, v2.4s, v1.4s
	add	v5.4s, v16.4s, v5.4s
	bsl	v0.16b, v2.16b, v1.16b
	add	v10.4s, v10.4s, v2.4s
	add	v0.4s, v0.4s, v13.4s
	shl	v13.4s, v0.4s, 9
	ushr	v0.4s, v0.4s, 23
	orr	v0.16b, v0.16b, v13.16b
	ldr	q13, [x0, #:lo12:.LC35]
	adrp	x0, .LC36
	add	v0.4s, v0.4s, v2.4s
	add	v13.4s, v30.4s, v13.4s
	bsl	v1.16b, v0.16b, v2.16b
	add	v9.4s, v9.4s, v0.4s
	add	v1.4s, v1.4s, v12.4s
	shl	v12.4s, v1.4s, 14
	ushr	v1.4s, v1.4s, 18
	orr	v1.16b, v1.16b, v12.16b
	ldr	q12, [x0, #:lo12:.LC36]
	adrp	x0, .LC37
	add	v1.4s, v1.4s, v0.4s
	add	v12.4s, v27.4s, v12.4s
	bsl	v2.16b, v1.16b, v0.16b
	add	v8.4s, v8.4s, v1.4s
	add	v2.4s, v2.4s, v11.4s
	shl	v11.4s, v2.4s, 20
	ushr	v2.4s, v2.4s, 12
	orr	v2.16b, v2.16b, v11.16b
	ldr	q11, [x0, #:lo12:.LC37]
	adrp	x0, .LC38
	add	v2.4s, v2.4s, v1.4s
	add	v11.4s, v28.4s, v11.4s
	bsl	v0.16b, v2.16b, v1.16b
	add	v7.4s, v7.4s, v2.4s
	add	v0.4s, v0.4s, v10.4s
	shl	v10.4s, v0.4s, 5
	ushr	v0.4s, v0.4s, 27
	orr	v0.16b, v0.16b, v10.16b
	ldr	q10, [x0, #:lo12:.LC38]
	adrp	x0, .LC39
	add	v0.4s, v0.4s, v2.4s
	add	v10.4s, v23.4s, v10.4s
	bsl	v1.16b, v0.16b, v2.16b
	add	v6.4s, v6.4s, v0.4s
	add	v1.4s, v1.4s, v9.4s
	shl	v9.4s, v1.4s, 9
	ushr	v1.4s, v1.4s, 23
	orr	v1.16b, v1.16b, v9.16b
	ldr	q9, [x0, #:lo12:.LC39]
	adrp	x0, .LC40
	add	v1.4s, v1.4s, v0.4s
	add	v9.4s, v17.4s, v9.4s
	bsl	v2.16b, v1.16b, v0.16b
	add	v5.4s, v5.4s, v1.4s
	add	v2.4s, v2.4s, v8.4s
	shl	v8.4s, v2.4s, 14
	ushr	v2.4s, v2.4s, 18
	orr	v2.16b, v2.16b, v8.16b
	ldr	q8, [x0, #:lo12:.LC40]
	adrp	x0, .LC41
	add	v2.4s, v2.4s, v1.4s
	add	v8.4s, v29.4s, v8.4s
	bsl	v0.16b, v2.16b, v1.16b
	add	v13.4s, v13.4s, v2.4s
	add	v0.4s, v0.4s, v7.4s
	shl	v7.4s, v0.4s, 20
	ushr	v0.4s, v0.4s, 12
	orr	v0.16b, v0.16b, v7.16b
	ldr	q7, [x0, #:lo12:.LC41]
	adrp	x0, .LC42
	add	v0.4s, v0.4s, v2.4s
	add	v7.4s, v24.4s, v7.4s
	bsl	v1.16b, v0.16b, v2.16b
	add	v12.4s, v12.4s, v0.4s
	add	v1.4s, v1.4s, v6.4s
	shl	v6.4s, v1.4s, 5
	ushr	v1.4s, v1.4s, 27
	orr	v1.16b, v1.16b, v6.16b
	ldr	q6, [x0, #:lo12:.LC42]
	adrp	x0, .LC43
	add	v1.4s, v1.4s, v0.4s
	add	v6.4s, v18.4s, v6.4s
	bsl	v2.16b, v1.16b, v0.16b
	add	v11.4s, v11.4s, v1.4s
	add	v2.4s, v2.4s, v5.4s
	shl	v5.4s, v2.4s, 9
	ushr	v2.4s, v2.4s, 23
	orr	v2.16b, v2.16b, v5.16b
	ldr	q5, [x0, #:lo12:.LC43]
	adrp	x0, .LC44
	add	v2.4s, v2.4s, v1.4s
	add	v5.4s, v30.4s, v5.4s
	bsl	v0.16b, v2.16b, v1.16b
	add	v10.4s, v10.4s, v2.4s
	add	v0.4s, v0.4s, v13.4s
	shl	v13.4s, v0.4s, 14
	ushr	v0.4s, v0.4s, 18
	orr	v0.16b, v0.16b, v13.16b
	ldr	q13, [x0, #:lo12:.LC44]
	adrp	x0, .LC45
	add	v0.4s, v0.4s, v2.4s
	add	v13.4s, v25.4s, v13.4s
	bsl	v1.16b, v0.16b, v2.16b
	eor	v2.16b, v0.16b, v2.16b
	add	v9.4s, v9.4s, v0.4s
	add	v1.4s, v1.4s, v12.4s
	shl	v12.4s, v1.4s, 20
	ushr	v1.4s, v1.4s, 12
	orr	v1.16b, v1.16b, v12.16b
	ldr	q12, [x0, #:lo12:.LC45]
	adrp	x0, .LC46
	add	v1.4s, v1.4s, v0.4s
	add	v12.4s, v19.4s, v12.4s
	eor	v2.16b, v2.16b, v1.16b
	eor	v0.16b, v1.16b, v0.16b
	add	v8.4s, v8.4s, v1.4s
	add	v11.4s, v11.4s, v2.4s
	shl	v2.4s, v11.4s, 4
	ushr	v11.4s, v11.4s, 28
	orr	v2.16b, v11.16b, v2.16b
	ldr	q11, [x0, #:lo12:.LC46]
	adrp	x0, .LC47
	add	v2.4s, v2.4s, v1.4s
	add	v11.4s, v31.4s, v11.4s
	eor	v0.16b, v0.16b, v2.16b
	eor	v1.16b, v2.16b, v1.16b
	add	v7.4s, v7.4s, v2.4s
	add	v0.4s, v0.4s, v10.4s
	shl	v10.4s, v0.4s, 11
	ushr	v0.4s, v0.4s, 21
	orr	v0.16b, v0.16b, v10.16b
	ldr	q10, [x0, #:lo12:.LC47]
	adrp	x0, .LC48
	add	v0.4s, v0.4s, v2.4s
	add	v10.4s, v26.4s, v10.4s
	eor	v1.16b, v1.16b, v0.16b
	eor	v2.16b, v0.16b, v2.16b
	add	v6.4s, v6.4s, v0.4s
	add	v1.4s, v1.4s, v9.4s
	shl	v9.4s, v1.4s, 16
	ushr	v1.4s, v1.4s, 16
	orr	v1.16b, v1.16b, v9.16b
	ldr	q9, [x0, #:lo12:.LC48]
	adrp	x0, .LC49
	add	v1.4s, v1.4s, v0.4s
	add	v9.4s, v20.4s, v9.4s
	eor	v2.16b, v2.16b, v1.16b
	eor	v0.16b, v1.16b, v0.16b
	add	v5.4s, v5.4s, v1.4s
	add	v2.4s, v2.4s, v8.4s
	shl	v8.4s, v2.4s, 23
	ushr	v2.4s, v2.4s, 9
	orr	v2.16b, v2.16b, v8.16b
	ldr	q8, [x0, #:lo12:.LC49]
	adrp	x0, .LC50
	add	v2.4s, v2.4s, v1.4s
	add	v8.4s, v14.4s, v8.4s
	eor	v0.16b, v0.16b, v2.16b
	eor	v1.16b, v2.16b, v1.16b
	add	v13.4s, v13.4s, v2.4s
	add	v0.4s, v0.4s, v7.4s
	shl	v7.4s, v0.4s, 4
	ushr	v0.4s, v0.4s, 28
	orr	v0.16b, v0.16b, v7.16b
	ldr	q7, [x0, #:lo12:.LC50]
	adrp	x0, .LC51
	add	v0.4s, v0.4s, v2.4s
	add	v7.4s, v27.4s, v7.4s
	eor	v1.16b, v1.16b, v0.16b
	eor	v2.16b, v0.16b, v2.16b
	add	v12.4s, v12.4s, v0.4s
	add	v1.4s, v1.4s, v6.4s
	shl	v6.4s, v1.4s, 11
	ushr	v1.4s, v1.4s, 21
	orr	v1.16b, v1.16b, v6.16b
	ldr	q6, [x0, #:lo12:.LC51]
	adrp	x0, .LC52
	add	v1.4s, v1.4s, v0.4s
	add	v6.4s, v21.4s, v6.4s
	eor	v2.16b, v2.16b, v1.16b
	eor	v0.16b, v0.16b, v1.16b
	add	v11.4s, v11.4s, v1.4s
	add	v2.4s, v2.4s, v5.4s
	shl	v5.4s, v2.4s, 16
	ushr	v2.4s, v2.4s, 16
	orr	v5.16b, v5.16b, v2.16b
	ldr	q2, [x0, #:lo12:.LC52]
	adrp	x0, .LC53
	add	v5.4s, v5.4s, v1.4s
	add	v2.4s, v16.4s, v2.4s
	eor	v0.16b, v0.16b, v5.16b
	eor	v1.16b, v1.16b, v5.16b
	add	v10.4s, v10.4s, v5.4s
	add	v0.4s, v0.4s, v13.4s
	shl	v13.4s, v0.4s, 23
	ushr	v0.4s, v0.4s, 9
	orr	v0.16b, v13.16b, v0.16b
	ldr	q13, [x0, #:lo12:.LC53]
	adrp	x0, .LC54
	add	v0.4s, v0.4s, v5.4s
	add	v13.4s, v31.4s, v13.4s
	eor	v1.16b, v1.16b, v0.16b
	eor	v5.16b, v5.16b, v0.16b
	add	v9.4s, v9.4s, v0.4s
	add	v1.4s, v1.4s, v12.4s
	ldr	q12, [x0, #:lo12:.LC54]
	adrp	x0, .LC55
	shl	v31.4s, v1.4s, 4
	ushr	v1.4s, v1.4s, 28
	add	v12.4s, v30.4s, v12.4s
	ldr	q30, [x0, #:lo12:.LC55]
	adrp	x0, .LC56
	orr	v1.16b, v31.16b, v1.16b
	add	v29.4s, v29.4s, v30.4s
	ldr	q30, [x0, #:lo12:.LC56]
	adrp	x0, .LC57
	add	v1.4s, v1.4s, v0.4s
	add	v30.4s, v28.4s, v30.4s
	eor	v5.16b, v5.16b, v1.16b
	eor	v0.16b, v0.16b, v1.16b
	add	v8.4s, v8.4s, v1.4s
	add	v5.4s, v5.4s, v11.4s
	ldr	q11, [x0, #:lo12:.LC57]
	adrp	x0, .LC58
	shl	v28.4s, v5.4s, 11
	ushr	v5.4s, v5.4s, 21
	add	v11.4s, v27.4s, v11.4s
	ldr	q27, [x0, #:lo12:.LC58]
	adrp	x0, .LC59
	orr	v5.16b, v28.16b, v5.16b
	add	v26.4s, v26.4s, v27.4s
	ldr	q27, [x0, #:lo12:.LC59]
	adrp	x0, .LC60
	add	v5.4s, v5.4s, v1.4s
	add	v25.4s, v25.4s, v27.4s
	ldr	q27, [x0, #:lo12:.LC60]
	adrp	x0, .LC61
	eor	v0.16b, v0.16b, v5.16b
	eor	v1.16b, v1.16b, v5.16b
	add	v27.4s, v24.4s, v27.4s
	ldr	q24, [x0, #:lo12:.LC61]
	adrp	x0, .LC62
	add	v0.4s, v0.4s, v10.4s
	add	v7.4s, v7.4s, v5.4s
	add	v23.4s, v23.4s, v24.4s
	ldr	q24, [x0, #:lo12:.LC62]
	adrp	x0, .LC63
	shl	v10.4s, v0.4s, 16
	ushr	v0.4s, v0.4s, 16
	add	v21.4s, v21.4s, v24.4s
	orr	v0.16b, v10.16b, v0.16b
	ldr	q10, [x0, #:lo12:.LC63]
	adrp	x0, .LC64
	add	v0.4s, v0.4s, v5.4s
	add	v20.4s, v20.4s, v10.4s
	ldr	q10, [x0, #:lo12:.LC64]
	adrp	x0, .LC65
	eor	v1.16b, v1.16b, v0.16b
	ldr	q24, [x0, #:lo12:.LC65]
	adrp	x0, .LC66
	add	v19.4s, v19.4s, v10.4s
	add	v1.4s, v1.4s, v9.4s
	ldr	q10, [x0, #:lo12:.LC66]
	adrp	x0, .LC67
	eor	v5.16b, v5.16b, v0.16b
	shl	v9.4s, v1.4s, 23
	ushr	v1.4s, v1.4s, 9
	add	v17.4s, v17.4s, v10.4s
	ldr	q10, [x0, #:lo12:.LC67]
	adrp	x0, .LC68
	orr	v1.16b, v9.16b, v1.16b
	add	v6.4s, v6.4s, v0.4s
	add	v10.4s, v16.4s, v10.4s
	add	v18.4s, v18.4s, v24.4s
	add	v16.4s, v1.4s, v0.4s
	ldr	q9, [x0, #:lo12:.LC68]
	eor	v5.16b, v5.16b, v16.16b
	eor	v0.16b, v0.16b, v16.16b
	add	v2.4s, v2.4s, v16.4s
	add	v9.4s, v14.4s, v9.4s
	add	v1.4s, v5.4s, v8.4s
	shl	v5.4s, v1.4s, 4
	ushr	v1.4s, v1.4s, 28
	orr	v1.16b, v5.16b, v1.16b
	add	v1.4s, v1.4s, v16.4s
	eor	v0.16b, v0.16b, v1.16b
	eor	v16.16b, v16.16b, v1.16b
	add	v13.4s, v13.4s, v1.4s
	add	v0.4s, v0.4s, v7.4s
	shl	v5.4s, v0.4s, 11
	ushr	v0.4s, v0.4s, 21
	orr	v5.16b, v5.16b, v0.16b
	add	v5.4s, v5.4s, v1.4s
	eor	v7.16b, v16.16b, v5.16b
	eor	v0.16b, v1.16b, v5.16b
	add	v12.4s, v12.4s, v5.4s
	add	v1.4s, v7.4s, v6.4s
	shl	v6.4s, v1.4s, 16
	ushr	v1.4s, v1.4s, 16
	orr	v1.16b, v6.16b, v1.16b
	add	v1.4s, v1.4s, v5.4s
	eor	v0.16b, v0.16b, v1.16b
	add	v29.4s, v29.4s, v1.4s
	add	v0.4s, v0.4s, v2.4s
	shl	v2.4s, v0.4s, 23
	ushr	v0.4s, v0.4s, 9
	orr	v0.16b, v2.16b, v0.16b
	add	v0.4s, v0.4s, v1.4s
	orn	v2.16b, v0.16b, v5.16b
	add	v30.4s, v30.4s, v0.4s
	eor	v2.16b, v2.16b, v1.16b
	add	v2.4s, v2.4s, v13.4s
	shl	v5.4s, v2.4s, 6
	ushr	v2.4s, v2.4s, 26
	orr	v5.16b, v5.16b, v2.16b
	add	v5.4s, v5.4s, v0.4s
	orn	v1.16b, v5.16b, v1.16b
	add	v11.4s, v11.4s, v5.4s
	eor	v1.16b, v1.16b, v0.16b
	add	v1.4s, v1.4s, v12.4s
	shl	v2.4s, v1.4s, 10
	ushr	v1.4s, v1.4s, 22
	orr	v1.16b, v2.16b, v1.16b
	add	v1.4s, v1.4s, v5.4s
	orn	v0.16b, v1.16b, v0.16b
	add	v26.4s, v26.4s, v1.4s
	eor	v0.16b, v0.16b, v5.16b
	add	v0.4s, v0.4s, v29.4s
	shl	v2.4s, v0.4s, 15
	ushr	v0.4s, v0.4s, 17
	orr	v2.16b, v2.16b, v0.16b
	add	v2.4s, v2.4s, v1.4s
	orn	v0.16b, v2.16b, v5.16b
	add	v25.4s, v25.4s, v2.4s
	eor	v0.16b, v0.16b, v1.16b
	add	v0.4s, v0.4s, v30.4s
	shl	v5.4s, v0.4s, 21
	ushr	v0.4s, v0.4s, 11
	orr	v0.16b, v5.16b, v0.16b
	add	v0.4s, v0.4s, v2.4s
	orn	v1.16b, v0.16b, v1.16b
	add	v27.4s, v27.4s, v0.4s
	eor	v1.16b, v1.16b, v2.16b
	add	v1.4s, v1.4s, v11.4s
	shl	v5.4s, v1.4s, 6
	ushr	v1.4s, v1.4s, 26
	orr	v1.16b, v5.16b, v1.16b
	add	v1.4s, v1.4s, v0.4s
	orn	v2.16b, v1.16b, v2.16b
	add	v23.4s, v23.4s, v1.4s
	eor	v2.16b, v2.16b, v0.16b
	add	v2.4s, v2.4s, v26.4s
	shl	v5.4s, v2.4s, 10
	ushr	v2.4s, v2.4s, 22
	orr	v5.16b, v5.16b, v2.16b
	add	v5.4s, v5.4s, v1.4s
	orn	v2.16b, v5.16b, v0.16b
	add	v21.4s, v21.4s, v5.4s
	eor	v2.16b, v2.16b, v1.16b
	add	v2.4s, v2.4s, v25.4s
	shl	v0.4s, v2.4s, 15
	ushr	v2.4s, v2.4s, 17
	orr	v0.16b, v0.16b, v2.16b
	add	v0.4s, v0.4s, v5.4s
	orn	v1.16b, v0.16b, v1.16b
	add	v20.4s, v20.4s, v0.4s
	eor	v1.16b, v1.16b, v5.16b
	add	v1.4s, v1.4s, v27.4s
	shl	v2.4s, v1.4s, 21
	ushr	v1.4s, v1.4s, 11
	orr	v2.16b, v2.16b, v1.16b
	add	v2.4s, v2.4s, v0.4s
	orn	v5.16b, v2.16b, v5.16b
	add	v19.4s, v19.4s, v2.4s
	eor	v5.16b, v5.16b, v0.16b
	add	v5.4s, v5.4s, v23.4s
	shl	v1.4s, v5.4s, 6
	ushr	v5.4s, v5.4s, 26
	orr	v1.16b, v1.16b, v5.16b
	add	v1.4s, v1.4s, v2.4s
	orn	v5.16b, v1.16b, v0.16b
	add	v18.4s, v18.4s, v1.4s
	eor	v5.16b, v5.16b, v2.16b
	add	v5.4s, v5.4s, v21.4s
	shl	v0.4s, v5.4s, 10
	ushr	v5.4s, v5.4s, 22
	orr	v0.16b, v0.16b, v5.16b
	add	v0.4s, v0.4s, v1.4s
	orn	v5.16b, v0.16b, v2.16b
	add	v17.4s, v17.4s, v0.4s
	eor	v5.16b, v5.16b, v1.16b
	add	v5.4s, v5.4s, v20.4s
	shl	v2.4s, v5.4s, 15
	ushr	v5.4s, v5.4s, 17
	orr	v2.16b, v2.16b, v5.16b
	add	v2.4s, v2.4s, v0.4s
	orn	v5.16b, v2.16b, v1.16b
	add	v10.4s, v10.4s, v2.4s
	eor	v5.16b, v5.16b, v0.16b
	add	v5.4s, v5.4s, v19.4s
	shl	v1.4s, v5.4s, 21
	ushr	v5.4s, v5.4s, 11
	orr	v1.16b, v1.16b, v5.16b
	add	v1.4s, v1.4s, v2.4s
	orn	v5.16b, v1.16b, v0.16b
	add	v9.4s, v9.4s, v1.4s
	eor	v5.16b, v5.16b, v2.16b
	add	v5.4s, v5.4s, v18.4s
	shl	v0.4s, v5.4s, 6
	ushr	v5.4s, v5.4s, 26
	orr	v0.16b, v0.16b, v5.16b
	add	v0.4s, v0.4s, v1.4s
	orn	v2.16b, v0.16b, v2.16b
	add	v15.4s, v15.4s, v0.4s
	eor	v2.16b, v2.16b, v1.16b
	add	v2.4s, v2.4s, v17.4s
	shl	v5.4s, v2.4s, 10
	ushr	v2.4s, v2.4s, 22
	orr	v2.16b, v5.16b, v2.16b
	add	v2.4s, v2.4s, v0.4s
	orn	v1.16b, v2.16b, v1.16b
	add	v22.4s, v22.4s, v2.4s
	eor	v1.16b, v1.16b, v0.16b
	add	v1.4s, v1.4s, v10.4s
	shl	v5.4s, v1.4s, 15
	ushr	v1.4s, v1.4s, 17
	orr	v1.16b, v5.16b, v1.16b
	add	v1.4s, v1.4s, v2.4s
	orn	v0.16b, v1.16b, v0.16b
	add	v4.4s, v4.4s, v1.4s
	eor	v0.16b, v0.16b, v2.16b
	add	v0.4s, v0.4s, v9.4s
	shl	v2.4s, v0.4s, 21
	ushr	v0.4s, v0.4s, 11
	orr	v0.16b, v2.16b, v0.16b
	add	v0.4s, v0.4s, v1.4s
	add	v3.4s, v3.4s, v0.4s
	cmp	w20, w23
	bne	.L64
	ldp	d8, d9, [sp, 80]
	.cfi_restore 73
	.cfi_restore 72
	ldp	d10, d11, [sp, 96]
	.cfi_restore 75
	.cfi_restore 74
	ldp	d12, d13, [sp, 112]
	.cfi_restore 77
	.cfi_restore 76
.L60:
	mov	x1, 1
	stp	q15, q3, [sp, 224]
	str	q4, [sp, 256]
	str	q22, [sp, 304]
.L65:
	lsl	x0, x1, 2
	add	x2, sp, 224
	add	x5, sp, 304
	add	x4, x2, x0
	add	x2, sp, 240
	add	x3, x2, x0
	add	x2, x22, x0
	add	x0, x5, x0
	add	x1, x1, 1
	ldr	w4, [x4, -4]
	ldr	w2, [x2, -4]
	ldr	w0, [x0, -4]
	rev	w4, w4
	ldr	w3, [x3, -4]
	rev	w2, w2
	rev	w0, w0
	stp	w2, w0, [x19, 8]
	rev	w3, w3
	stp	w4, w3, [x19]
	add	x19, x19, 16
	cmp	x1, 5
	bne	.L65
	mov	x19, x5
.L67:
	ldr	x0, [x21]
	cbz	x0, .L66
	bl	_ZdaPv
.L66:
	add	x21, x21, 8
	cmp	x21, x19
	bne	.L67
	ldp	x29, x30, [sp]
	ldp	x19, x20, [sp, 16]
	ldp	x21, x22, [sp, 32]
	ldp	x23, x24, [sp, 48]
	ldp	x25, x26, [sp, 64]
	ldp	d14, d15, [sp, 128]
	.cfi_remember_state
	.cfi_restore 79
	.cfi_restore 78
	add	sp, sp, 560
	.cfi_restore 29
	.cfi_restore 30
	.cfi_restore 25
	.cfi_restore 26
	.cfi_restore 23
	.cfi_restore 24
	.cfi_restore 21
	.cfi_restore 22
	.cfi_restore 19
	.cfi_restore 20
	.cfi_def_cfa_offset 0
	ret
.L69:
	.cfi_restore_state
	adrp	x0, .LC1
	add	x22, sp, 256
	ldr	q22, [x0, #:lo12:.LC1]
	adrp	x0, .LC2
	ldr	q4, [x0, #:lo12:.LC2]
	adrp	x0, .LC3
	ldr	q3, [x0, #:lo12:.LC3]
	adrp	x0, .LC4
	ldr	q15, [x0, #:lo12:.LC4]
	b	.L60
.L71:
	.cfi_restore 78
	.cfi_restore 79
	mov	x19, x0
	add	x0, sp, 304
	stp	d8, d9, [sp, 80]
	.cfi_offset 73, -472
	.cfi_offset 72, -480
	stp	d10, d11, [sp, 96]
	.cfi_offset 75, -456
	.cfi_offset 74, -464
	stp	d12, d13, [sp, 112]
	.cfi_offset 77, -440
	.cfi_offset 76, -448
	stp	d14, d15, [sp, 128]
	.cfi_offset 79, -424
	.cfi_offset 78, -432
	bl	_ZNSt7__cxx1112basic_stringIcSt11char_traitsIcESaIcEE10_M_disposeEv
	mov	x0, x19
.LEHB5:
	bl	_Unwind_Resume
.LEHE5:
	.cfi_endproc
.LFE7114:
	.section	.gcc_except_table
.LLSDA7114:
	.byte	0xff
	.byte	0xff
	.byte	0x1
	.uleb128 .LLSDACSE7114-.LLSDACSB7114
.LLSDACSB7114:
	.uleb128 .LEHB3-.LFB7114
	.uleb128 .LEHE3-.LEHB3
	.uleb128 0
	.uleb128 0
	.uleb128 .LEHB4-.LFB7114
	.uleb128 .LEHE4-.LEHB4
	.uleb128 .L71-.LFB7114
	.uleb128 0
	.uleb128 .LEHB5-.LFB7114
	.uleb128 .LEHE5-.LEHB5
	.uleb128 0
	.uleb128 0
.LLSDACSE7114:
	.text
	.size	_Z12MD5Hash_SIMDRSt6vectorINSt7__cxx1112basic_stringIcSt11char_traitsIcESaIcEEESaIS5_EEPA4_j, .-_Z12MD5Hash_SIMDRSt6vectorINSt7__cxx1112basic_stringIcSt11char_traitsIcESaIcEEESaIS5_EEPA4_j
	.section	.text.startup,"ax",@progbits
	.align	2
	.p2align 4,,11
	.type	_GLOBAL__sub_I__Z13StringProcessNSt7__cxx1112basic_stringIcSt11char_traitsIcESaIcEEEPi, %function
_GLOBAL__sub_I__Z13StringProcessNSt7__cxx1112basic_stringIcSt11char_traitsIcESaIcEEEPi:
.LFB7655:
	.cfi_startproc
	stp	x29, x30, [sp, -32]!
	.cfi_def_cfa_offset 32
	.cfi_offset 29, -32
	.cfi_offset 30, -24
	mov	x29, sp
	str	x19, [sp, 16]
	.cfi_offset 19, -16
	adrp	x19, .LANCHOR0
	add	x19, x19, :lo12:.LANCHOR0
	mov	x0, x19
	bl	_ZNSt8ios_base4InitC1Ev
	mov	x1, x19
	adrp	x2, __dso_handle
	ldr	x19, [sp, 16]
	add	x2, x2, :lo12:__dso_handle
	ldp	x29, x30, [sp], 32
	.cfi_restore 30
	.cfi_restore 29
	.cfi_restore 19
	.cfi_def_cfa_offset 0
	adrp	x0, _ZNSt8ios_base4InitD1Ev
	add	x0, x0, :lo12:_ZNSt8ios_base4InitD1Ev
	b	__cxa_atexit
	.cfi_endproc
.LFE7655:
	.size	_GLOBAL__sub_I__Z13StringProcessNSt7__cxx1112basic_stringIcSt11char_traitsIcESaIcEEEPi, .-_GLOBAL__sub_I__Z13StringProcessNSt7__cxx1112basic_stringIcSt11char_traitsIcESaIcEEEPi
	.section	.init_array,"aw"
	.align	3
	.xword	_GLOBAL__sub_I__Z13StringProcessNSt7__cxx1112basic_stringIcSt11char_traitsIcESaIcEEEPi
	.section	.rodata.cst16,"aM",@progbits,16
	.align	4
.LC1:
	.word	271733878
	.word	271733878
	.word	271733878
	.word	271733878
	.align	4
.LC2:
	.word	-1732584194
	.word	-1732584194
	.word	-1732584194
	.word	-1732584194
	.align	4
.LC3:
	.word	-271733879
	.word	-271733879
	.word	-271733879
	.word	-271733879
	.align	4
.LC4:
	.word	1732584193
	.word	1732584193
	.word	1732584193
	.word	1732584193
	.align	4
.LC5:
	.word	-680876936
	.word	-680876936
	.word	-680876936
	.word	-680876936
	.align	4
.LC6:
	.word	-389564586
	.word	-389564586
	.word	-389564586
	.word	-389564586
	.align	4
.LC7:
	.word	606105819
	.word	606105819
	.word	606105819
	.word	606105819
	.align	4
.LC8:
	.word	-1044525330
	.word	-1044525330
	.word	-1044525330
	.word	-1044525330
	.align	4
.LC9:
	.word	-176418897
	.word	-176418897
	.word	-176418897
	.word	-176418897
	.align	4
.LC10:
	.word	1200080426
	.word	1200080426
	.word	1200080426
	.word	1200080426
	.align	4
.LC11:
	.word	-1473231341
	.word	-1473231341
	.word	-1473231341
	.word	-1473231341
	.align	4
.LC12:
	.word	-45705983
	.word	-45705983
	.word	-45705983
	.word	-45705983
	.align	4
.LC13:
	.word	1770035416
	.word	1770035416
	.word	1770035416
	.word	1770035416
	.align	4
.LC14:
	.word	-1958414417
	.word	-1958414417
	.word	-1958414417
	.word	-1958414417
	.align	4
.LC15:
	.word	-42063
	.word	-42063
	.word	-42063
	.word	-42063
	.align	4
.LC16:
	.word	-1990404162
	.word	-1990404162
	.word	-1990404162
	.word	-1990404162
	.align	4
.LC17:
	.word	1804603682
	.word	1804603682
	.word	1804603682
	.word	1804603682
	.align	4
.LC18:
	.word	-40341101
	.word	-40341101
	.word	-40341101
	.word	-40341101
	.align	4
.LC19:
	.word	-1502002290
	.word	-1502002290
	.word	-1502002290
	.word	-1502002290
	.align	4
.LC20:
	.word	1236535329
	.word	1236535329
	.word	1236535329
	.word	1236535329
	.align	4
.LC21:
	.word	-165796510
	.word	-165796510
	.word	-165796510
	.word	-165796510
	.align	4
.LC22:
	.word	-1069501632
	.word	-1069501632
	.word	-1069501632
	.word	-1069501632
	.align	4
.LC23:
	.word	643717713
	.word	643717713
	.word	643717713
	.word	643717713
	.align	4
.LC24:
	.word	-373897302
	.word	-373897302
	.word	-373897302
	.word	-373897302
	.align	4
.LC25:
	.word	-701558691
	.word	-701558691
	.word	-701558691
	.word	-701558691
	.align	4
.LC26:
	.word	38016083
	.word	38016083
	.word	38016083
	.word	38016083
	.align	4
.LC27:
	.word	-660478335
	.word	-660478335
	.word	-660478335
	.word	-660478335
	.align	4
.LC28:
	.word	-405537848
	.word	-405537848
	.word	-405537848
	.word	-405537848
	.align	4
.LC29:
	.word	568446438
	.word	568446438
	.word	568446438
	.word	568446438
	.align	4
.LC30:
	.word	-1019803690
	.word	-1019803690
	.word	-1019803690
	.word	-1019803690
	.align	4
.LC31:
	.word	-187363961
	.word	-187363961
	.word	-187363961
	.word	-187363961
	.align	4
.LC32:
	.word	1163531501
	.word	1163531501
	.word	1163531501
	.word	1163531501
	.align	4
.LC33:
	.word	-1444681467
	.word	-1444681467
	.word	-1444681467
	.word	-1444681467
	.align	4
.LC34:
	.word	-51403784
	.word	-51403784
	.word	-51403784
	.word	-51403784
	.align	4
.LC35:
	.word	1735328473
	.word	1735328473
	.word	1735328473
	.word	1735328473
	.align	4
.LC36:
	.word	-1926607734
	.word	-1926607734
	.word	-1926607734
	.word	-1926607734
	.align	4
.LC37:
	.word	-378558
	.word	-378558
	.word	-378558
	.word	-378558
	.align	4
.LC38:
	.word	-2022574463
	.word	-2022574463
	.word	-2022574463
	.word	-2022574463
	.align	4
.LC39:
	.word	1839030562
	.word	1839030562
	.word	1839030562
	.word	1839030562
	.align	4
.LC40:
	.word	-35309556
	.word	-35309556
	.word	-35309556
	.word	-35309556
	.align	4
.LC41:
	.word	-1530992060
	.word	-1530992060
	.word	-1530992060
	.word	-1530992060
	.align	4
.LC42:
	.word	1272893353
	.word	1272893353
	.word	1272893353
	.word	1272893353
	.align	4
.LC43:
	.word	-155497632
	.word	-155497632
	.word	-155497632
	.word	-155497632
	.align	4
.LC44:
	.word	-1094730640
	.word	-1094730640
	.word	-1094730640
	.word	-1094730640
	.align	4
.LC45:
	.word	681279174
	.word	681279174
	.word	681279174
	.word	681279174
	.align	4
.LC46:
	.word	-358537222
	.word	-358537222
	.word	-358537222
	.word	-358537222
	.align	4
.LC47:
	.word	-722521979
	.word	-722521979
	.word	-722521979
	.word	-722521979
	.align	4
.LC48:
	.word	76029189
	.word	76029189
	.word	76029189
	.word	76029189
	.align	4
.LC49:
	.word	-640364487
	.word	-640364487
	.word	-640364487
	.word	-640364487
	.align	4
.LC50:
	.word	-421815835
	.word	-421815835
	.word	-421815835
	.word	-421815835
	.align	4
.LC51:
	.word	530742520
	.word	530742520
	.word	530742520
	.word	530742520
	.align	4
.LC52:
	.word	-995338651
	.word	-995338651
	.word	-995338651
	.word	-995338651
	.align	4
.LC53:
	.word	-198630844
	.word	-198630844
	.word	-198630844
	.word	-198630844
	.align	4
.LC54:
	.word	1126891415
	.word	1126891415
	.word	1126891415
	.word	1126891415
	.align	4
.LC55:
	.word	-1416354905
	.word	-1416354905
	.word	-1416354905
	.word	-1416354905
	.align	4
.LC56:
	.word	-57434055
	.word	-57434055
	.word	-57434055
	.word	-57434055
	.align	4
.LC57:
	.word	1700485571
	.word	1700485571
	.word	1700485571
	.word	1700485571
	.align	4
.LC58:
	.word	-1894986606
	.word	-1894986606
	.word	-1894986606
	.word	-1894986606
	.align	4
.LC59:
	.word	-1051523
	.word	-1051523
	.word	-1051523
	.word	-1051523
	.align	4
.LC60:
	.word	-2054922799
	.word	-2054922799
	.word	-2054922799
	.word	-2054922799
	.align	4
.LC61:
	.word	1873313359
	.word	1873313359
	.word	1873313359
	.word	1873313359
	.align	4
.LC62:
	.word	-30611744
	.word	-30611744
	.word	-30611744
	.word	-30611744
	.align	4
.LC63:
	.word	-1560198380
	.word	-1560198380
	.word	-1560198380
	.word	-1560198380
	.align	4
.LC64:
	.word	1309151649
	.word	1309151649
	.word	1309151649
	.word	1309151649
	.align	4
.LC65:
	.word	-145523070
	.word	-145523070
	.word	-145523070
	.word	-145523070
	.align	4
.LC66:
	.word	-1120210379
	.word	-1120210379
	.word	-1120210379
	.word	-1120210379
	.align	4
.LC67:
	.word	718787259
	.word	718787259
	.word	718787259
	.word	718787259
	.align	4
.LC68:
	.word	-343485551
	.word	-343485551
	.word	-343485551
	.word	-343485551
	.bss
	.align	3
	.set	.LANCHOR0,. + 0
	.type	_ZStL8__ioinit, %object
	.size	_ZStL8__ioinit, 1
_ZStL8__ioinit:
	.zero	1
	.hidden	DW.ref.__gxx_personality_v0
	.weak	DW.ref.__gxx_personality_v0
	.section	.data.DW.ref.__gxx_personality_v0,"awG",@progbits,DW.ref.__gxx_personality_v0,comdat
	.align	3
	.type	DW.ref.__gxx_personality_v0, %object
	.size	DW.ref.__gxx_personality_v0, 8
DW.ref.__gxx_personality_v0:
	.xword	__gxx_personality_v0
	.hidden	__dso_handle
	.ident	"GCC: (GNU) 10.3.1"
	.section	.note.GNU-stack,"",@progbits
